; ModuleID = '33/326.c'
source_filename = "33/326.c"
target datalayout = "e-m:e-p270:32:32-p271:32:32-p272:64:64-i64:64-f80:128-n8:16:32:64-S128"
target triple = "x86_64-pc-linux-gnu"

@.str = private unnamed_addr constant [3 x i8] c"%d\00", align 1
@.str.1 = private unnamed_addr constant [3 x i8] c"%s\00", align 1
@chaina = common dso_local global [1000 x [260 x i8]] zeroinitializer, align 16
@len = common dso_local global i32 0, align 4
@chainb = common dso_local global [1000 x [260 x i8]] zeroinitializer, align 16
@.str.2 = private unnamed_addr constant [4 x i8] c"%s\0A\00", align 1

; Function Attrs: noinline nounwind uwtable
define dso_local i32 @main() #0 {
  %1 = alloca i32, align 4
  %2 = alloca i32, align 4
  %3 = alloca i32, align 4
  %4 = alloca i32, align 4
  store i32 0, i32* %1, align 4
  %5 = call i32 (i8*, ...) @__isoc99_scanf(i8* getelementptr inbounds ([3 x i8], [3 x i8]* @.str, i64 0, i64 0), i32* %2)
  store i32 0, i32* %3, align 4
  br label %6

6:                                                ; preds = %68, %0
  %7 = load i32, i32* %3, align 4
  %8 = load i32, i32* %2, align 4
  %9 = icmp slt i32 %7, %8
  br i1 %9, label %10, label %71

10:                                               ; preds = %6
  %11 = load i32, i32* %3, align 4
  %12 = sext i32 %11 to i64
  %13 = getelementptr inbounds [1000 x [260 x i8]], [1000 x [260 x i8]]* @chaina, i64 0, i64 %12
  %14 = getelementptr inbounds [260 x i8], [260 x i8]* %13, i64 0, i64 0
  %15 = call i32 (i8*, ...) @__isoc99_scanf(i8* getelementptr inbounds ([3 x i8], [3 x i8]* @.str.1, i64 0, i64 0), i8* %14)
  %16 = load i32, i32* %3, align 4
  %17 = sext i32 %16 to i64
  %18 = getelementptr inbounds [1000 x [260 x i8]], [1000 x [260 x i8]]* @chaina, i64 0, i64 %17
  %19 = getelementptr inbounds [260 x i8], [260 x i8]* %18, i64 0, i64 0
  %20 = call i64 @strlen(i8* %19) #3
  %21 = trunc i64 %20 to i32
  store i32 %21, i32* @len, align 4
  store i32 0, i32* %4, align 4
  br label %22

22:                                               ; preds = %64, %10
  %23 = load i32, i32* %4, align 4
  %24 = load i32, i32* @len, align 4
  %25 = icmp slt i32 %23, %24
  br i1 %25, label %26, label %67

26:                                               ; preds = %22
  %27 = load i32, i32* %3, align 4
  %28 = sext i32 %27 to i64
  %29 = getelementptr inbounds [1000 x [260 x i8]], [1000 x [260 x i8]]* @chaina, i64 0, i64 %28
  %30 = load i32, i32* %4, align 4
  %31 = sext i32 %30 to i64
  %32 = getelementptr inbounds [260 x i8], [260 x i8]* %29, i64 0, i64 %31
  %33 = load i8, i8* %32, align 1
  %34 = sext i8 %33 to i32
  switch i32 %34, label %63 [
    i32 65, label %35
    i32 84, label %42
    i32 67, label %49
    i32 71, label %56
  ]

35:                                               ; preds = %26
  %36 = load i32, i32* %3, align 4
  %37 = sext i32 %36 to i64
  %38 = getelementptr inbounds [1000 x [260 x i8]], [1000 x [260 x i8]]* @chainb, i64 0, i64 %37
  %39 = load i32, i32* %4, align 4
  %40 = sext i32 %39 to i64
  %41 = getelementptr inbounds [260 x i8], [260 x i8]* %38, i64 0, i64 %40
  store i8 84, i8* %41, align 1
  br label %63

42:                                               ; preds = %26
  %43 = load i32, i32* %3, align 4
  %44 = sext i32 %43 to i64
  %45 = getelementptr inbounds [1000 x [260 x i8]], [1000 x [260 x i8]]* @chainb, i64 0, i64 %44
  %46 = load i32, i32* %4, align 4
  %47 = sext i32 %46 to i64
  %48 = getelementptr inbounds [260 x i8], [260 x i8]* %45, i64 0, i64 %47
  store i8 65, i8* %48, align 1
  br label %63

49:                                               ; preds = %26
  %50 = load i32, i32* %3, align 4
  %51 = sext i32 %50 to i64
  %52 = getelementptr inbounds [1000 x [260 x i8]], [1000 x [260 x i8]]* @chainb, i64 0, i64 %51
  %53 = load i32, i32* %4, align 4
  %54 = sext i32 %53 to i64
  %55 = getelementptr inbounds [260 x i8], [260 x i8]* %52, i64 0, i64 %54
  store i8 71, i8* %55, align 1
  br label %63

56:                                               ; preds = %26
  %57 = load i32, i32* %3, align 4
  %58 = sext i32 %57 to i64
  %59 = getelementptr inbounds [1000 x [260 x i8]], [1000 x [260 x i8]]* @chainb, i64 0, i64 %58
  %60 = load i32, i32* %4, align 4
  %61 = sext i32 %60 to i64
  %62 = getelementptr inbounds [260 x i8], [260 x i8]* %59, i64 0, i64 %61
  store i8 67, i8* %62, align 1
  br label %63

63:                                               ; preds = %56, %26, %49, %42, %35
  br label %64

64:                                               ; preds = %63
  %65 = load i32, i32* %4, align 4
  %66 = add nsw i32 %65, 1
  store i32 %66, i32* %4, align 4
  br label %22

67:                                               ; preds = %22
  br label %68

68:                                               ; preds = %67
  %69 = load i32, i32* %3, align 4
  %70 = add nsw i32 %69, 1
  store i32 %70, i32* %3, align 4
  br label %6

71:                                               ; preds = %6
  store i32 0, i32* %3, align 4
  br label %72

72:                                               ; preds = %82, %71
  %73 = load i32, i32* %3, align 4
  %74 = load i32, i32* %2, align 4
  %75 = icmp slt i32 %73, %74
  br i1 %75, label %76, label %85

76:                                               ; preds = %72
  %77 = load i32, i32* %3, align 4
  %78 = sext i32 %77 to i64
  %79 = getelementptr inbounds [1000 x [260 x i8]], [1000 x [260 x i8]]* @chainb, i64 0, i64 %78
  %80 = getelementptr inbounds [260 x i8], [260 x i8]* %79, i64 0, i64 0
  %81 = call i32 (i8*, ...) @printf(i8* getelementptr inbounds ([4 x i8], [4 x i8]* @.str.2, i64 0, i64 0), i8* %80)
  br label %82

82:                                               ; preds = %76
  %83 = load i32, i32* %3, align 4
  %84 = add nsw i32 %83, 1
  store i32 %84, i32* %3, align 4
  br label %72

85:                                               ; preds = %72
  ret i32 0
}

declare dso_local i32 @__isoc99_scanf(i8*, ...) #1

; Function Attrs: nounwind readonly
declare dso_local i64 @strlen(i8*) #2

declare dso_local i32 @printf(i8*, ...) #1


!llvm.module.flags = !{!0}
!llvm.ident = !{!1}

!0 = !{i32 1, !"wchar_size", i32 4}
!1 = !{!"clang version 10.0.0-4ubuntu1 "}
